; Function Attrs: nofree norecurse nosync nounwind memory(argmem: readwrite) uwtable
define internal fastcc void @ge_tobytes(ptr noundef nonnull captures(none) initializes((0, 32)) %0, ptr noundef nonnull readonly captures(none) %1) unnamed_addr #4 {
  %3 = alloca [32 x i8], align 16
  %4 = alloca [10 x i32], align 16
  %5 = alloca [10 x i32], align 16
  %6 = alloca [10 x i32], align 16
  call void @llvm.lifetime.start.p0(i64 40, ptr nonnull %4) #9
  call void @llvm.lifetime.start.p0(i64 40, ptr nonnull %5) #9
  call void @llvm.lifetime.start.p0(i64 40, ptr nonnull %6) #9
  %7 = getelementptr inbounds nuw i8, ptr %1, i64 80
  call fastcc void @fe_invert(ptr noundef %4, ptr noundef %7)
  call fastcc void @fe_mul(ptr noundef %5, ptr noundef nonnull %1, ptr noundef nonnull %4)
  %8 = getelementptr inbounds nuw i8, ptr %1, i64 40
  call fastcc void @fe_mul(ptr noundef %6, ptr noundef nonnull %8, ptr noundef nonnull %4)
  call fastcc void @fe_tobytes(ptr noundef nonnull %0, ptr noundef %6)
  call void @llvm.lifetime.start.p0(i64 32, ptr nonnull %3) #9
  call fastcc void @fe_tobytes(ptr noundef nonnull %3, ptr noundef nonnull readonly %5)
  %9 = load i8, ptr %3, align 16, !tbaa !3
  call void @llvm.lifetime.end.p0(i64 32, ptr nonnull %3) #9
  %10 = getelementptr inbounds nuw i8, ptr %0, i64 31
  %11 = load i8, ptr %10, align 1, !tbaa !3
  %12 = shl i8 %9, 7
  %13 = xor i8 %11, %12
  store i8 %13, ptr %10, align 1, !tbaa !3
  call void @llvm.lifetime.end.p0(i64 40, ptr nonnull %6) #9
  call void @llvm.lifetime.end.p0(i64 40, ptr nonnull %5) #9
  call void @llvm.lifetime.end.p0(i64 40, ptr nonnull %4) #9
  ret void
}